ccopy_reg
_reconstructor
p1
(csklearn.ensemble.forest
RandomForestClassifier
p2
c__builtin__
object
p3
NtRp4
(dp5
S'warm_start'
p6
I00
sS'base_estimator'
p7
g1
(csklearn.tree.tree
DecisionTreeClassifier
p8
g3
NtRp9
(dp10
S'presort'
p11
I00
sS'splitter'
p12
S'best'
p13
sS'tree_'
p14
NsS'n_features_'
p15
NsS'n_outputs_'
p16
NsS'n_classes_'
p17
NsS'random_state'
p18
NsS'classes_'
p19
NsS'max_features_'
p20
NsS'min_samples_leaf'
p21
I1
sS'max_features'
p22
NsS'min_weight_fraction_leaf'
p23
F0
sS'criterion'
p24
S'gini'
p25
sS'max_leaf_nodes'
p26
NsS'min_samples_split'
p27
I2
sS'max_depth'
p28
NsS'class_weight'
p29
NsbsS'estimators_'
p30
(lp31
sS'n_jobs'
p32
I1
sS'verbose'
p33
I0
sg18
NsS'bootstrap'
p34
I01
sS'oob_score'
p35
I00
sg21
I1
sS'n_estimators'
p36
I20
sg22
S'auto'
p37
sS'estimator_params'
p38
(S'criterion'
S'max_depth'
p39
S'min_samples_split'
S'min_samples_leaf'
S'min_weight_fraction_leaf'
p40
S'max_features'
S'max_leaf_nodes'
S'random_state'
tp41
sg24
g25
sg23
F0
sg26
Nsg27
I2
sg28
Nsg29
Nsb.